target datalayout = "e-m:e-p270:32:32-p271:32:32-p272:64:64-i64:64-i128:128-f80:128-n8:16:32:64-S128"
target triple = "x86_64-pc-linux-gnu"

%"class.(anonymous namespace)::RefWrapper.0" = type { ptr }
%"class.cv::Rect_.2" = type { float, float, float, float }

; Function Attrs: mustprogress nounwind uwtable
define internal void @_ZN12_GLOBAL__N_110RefWrapperIfEC2ERf(ptr noundef nonnull align 8 dereferenceable(8) %0, ptr noundef nonnull align 4 dereferenceable(4) %1) unnamed_addr #5 align 2 {
  %3 = alloca ptr, align 8
  %4 = alloca ptr, align 8
  store ptr %0, ptr %3, align 8
  store ptr %1, ptr %4, align 8
  %5 = load ptr, ptr %3, align 8
  %6 = getelementptr inbounds %"class.(anonymous namespace)::RefWrapper.0", ptr %5, i32 0, i32 0
  %7 = load ptr, ptr %4, align 8
  store ptr %7, ptr %6, align 8
  ret void
}

; Function Attrs: mustprogress uwtable
define hidden noundef zeroext i1 @_Z11pyopencv_toIN2cv5Rect_IfEEEbP7_objectRT_RK7ArgInfo(ptr noundef %0, ptr noundef nonnull align 4 dereferenceable(16) %1, ptr noundef nonnull align 8 dereferenceable(12) %2) #4 {
  %4 = alloca ptr, align 8
  %5 = alloca ptr, align 8
  %6 = alloca ptr, align 8
  %7 = alloca [4 x %"class.(anonymous namespace)::RefWrapper.0"], align 16
  store ptr %0, ptr %4, align 8
  store ptr %1, ptr %5, align 8
  store ptr %2, ptr %6, align 8
  %8 = load ptr, ptr %5, align 8
  %9 = getelementptr inbounds %"class.cv::Rect_.2", ptr %8, i32 0, i32 0
  call void @_ZN12_GLOBAL__N_110RefWrapperIfEC2ERf(ptr noundef nonnull align 8 dereferenceable(8) %7, ptr noundef nonnull align 4 dereferenceable(4) %9)
  %10 = getelementptr inbounds %"class.(anonymous namespace)::RefWrapper.0", ptr %7, i64 1
  %11 = load ptr, ptr %5, align 8
  %12 = getelementptr inbounds %"class.cv::Rect_.2", ptr %11, i32 0, i32 1
  call void @_ZN12_GLOBAL__N_110RefWrapperIfEC2ERf(ptr noundef nonnull align 8 dereferenceable(8) %10, ptr noundef nonnull align 4 dereferenceable(4) %12)
  %13 = getelementptr inbounds %"class.(anonymous namespace)::RefWrapper.0", ptr %7, i64 2
  %14 = load ptr, ptr %5, align 8
  %15 = getelementptr inbounds %"class.cv::Rect_.2", ptr %14, i32 0, i32 2
  call void @_ZN12_GLOBAL__N_110RefWrapperIfEC2ERf(ptr noundef nonnull align 8 dereferenceable(8) %13, ptr noundef nonnull align 4 dereferenceable(4) %15)
  %16 = getelementptr inbounds %"class.(anonymous namespace)::RefWrapper.0", ptr %7, i64 3
  %17 = load ptr, ptr %5, align 8
  %18 = getelementptr inbounds %"class.cv::Rect_.2", ptr %17, i32 0, i32 3
  call void @_ZN12_GLOBAL__N_110RefWrapperIfEC2ERf(ptr noundef nonnull align 8 dereferenceable(8) %16, ptr noundef nonnull align 4 dereferenceable(4) %18)
  %19 = load ptr, ptr %4, align 8
  %20 = load ptr, ptr %6, align 8
  %21 = call noundef zeroext i1 @_ZN12_GLOBAL__N_113parseSequenceIfLm4EEEbP7_objectRAT0__NS_10RefWrapperIT_EERK7ArgInfo(ptr noundef %19, ptr noundef nonnull align 8 dereferenceable(32) %7, ptr noundef nonnull align 8 dereferenceable(12) %20)
  ret i1 %21
}